target datalayout = "e-m:e-p270:32:32-p271:32:32-p272:64:64-i64:64-i128:128-f80:128-n8:16:32:64-S128"
target triple = "x86_64-pc-linux-gnu"

%struct.Vec_Vec_t_ = type { i32, i32, ptr }

; Function Attrs: nounwind uwtable
define internal ptr @Vec_VecEntry(ptr noundef %0, i32 noundef %1) #0 {
  %3 = alloca ptr, align 8
  %4 = alloca i32, align 4
  store ptr %0, ptr %3, align 8
  store i32 %1, ptr %4, align 4
  %5 = load ptr, ptr %3, align 8
  %6 = getelementptr inbounds %struct.Vec_Vec_t_, ptr %5, i32 0, i32 2
  %7 = load ptr, ptr %6, align 8
  %8 = load i32, ptr %4, align 4
  %9 = sext i32 %8 to i64
  %10 = getelementptr inbounds ptr, ptr %7, i64 %9
  %11 = load ptr, ptr %10, align 8
  ret ptr %11
}

; Function Attrs: nounwind uwtable
define internal i32 @Vec_VecSize(ptr noundef %0) #0 {
  %2 = alloca ptr, align 8
  store ptr %0, ptr %2, align 8
  %3 = load ptr, ptr %2, align 8
  %4 = getelementptr inbounds %struct.Vec_Vec_t_, ptr %3, i32 0, i32 1
  %5 = load i32, ptr %4, align 4
  ret i32 %5
}

; Function Attrs: nounwind uwtable
define float @Cgt_ManComputeCoverage(ptr noundef %0, ptr noundef %1) #0 {
  %3 = alloca ptr, align 8
  %4 = alloca ptr, align 8
  %5 = alloca i32, align 4
  %6 = alloca i32, align 4
  %7 = alloca ptr, align 8
  %8 = alloca ptr, align 8
  %9 = alloca i32, align 4
  %10 = alloca i32, align 4
  store ptr %0, ptr %3, align 8
  store ptr %1, ptr %4, align 8
  store i32 32, ptr %5, align 4
  store i32 1, ptr %6, align 4
  store i32 0, ptr %10, align 4
  %11 = load ptr, ptr %3, align 8
  %12 = load i32, ptr %5, align 4
  %13 = load i32, ptr %6, align 4
  %14 = call ptr @Ssw_SmlSimulateSeq(ptr noundef %11, i32 noundef 0, i32 noundef %12, i32 noundef %13)
  store ptr %14, ptr %7, align 8
  store i32 0, ptr %9, align 4
  br label %15

15:                                               ; preds = %32, %2
  %16 = load i32, ptr %9, align 4
  %17 = load ptr, ptr %4, align 8
  %18 = call i32 @Vec_VecSize(ptr noundef %17)
  %19 = icmp slt i32 %16, %18
  br i1 %19, label %20, label %24

20:                                               ; preds = %15
  %21 = load ptr, ptr %4, align 8
  %22 = load i32, ptr %9, align 4
  %23 = call ptr @Vec_VecEntry(ptr noundef %21, i32 noundef %22)
  store ptr %23, ptr %8, align 8
  br label %24

24:                                               ; preds = %20, %15
  %25 = phi i1 [ false, %15 ], [ true, %20 ]
  br i1 %25, label %26, label %35

26:                                               ; preds = %24
  %27 = load ptr, ptr %7, align 8
  %28 = load ptr, ptr %8, align 8
  %29 = call i32 @Ssw_SmlNodeCountOnesRealVec(ptr noundef %27, ptr noundef %28)
  %30 = load i32, ptr %10, align 4
  %31 = add nsw i32 %30, %29
  store i32 %31, ptr %10, align 4
  br label %32

32:                                               ; preds = %26
  %33 = load i32, ptr %9, align 4
  %34 = add nsw i32 %33, 1
  store i32 %34, ptr %9, align 4
  br label %15, !llvm.loop !12

35:                                               ; preds = %24
  %36 = load ptr, ptr %7, align 8
  call void @Ssw_SmlStop(ptr noundef %36)
  %37 = load i32, ptr %10, align 4
  %38 = sitofp i32 %37 to float
  %39 = fmul float 1.000000e+02, %38
  %40 = fdiv float %39, 3.200000e+01
  %41 = load i32, ptr %5, align 4
  %42 = sitofp i32 %41 to float
  %43 = fdiv float %40, %42
  %44 = load i32, ptr %6, align 4
  %45 = sitofp i32 %44 to float
  %46 = fdiv float %43, %45
  %47 = load ptr, ptr %4, align 8
  %48 = call i32 @Vec_VecSize(ptr noundef %47)
  %49 = sitofp i32 %48 to float
  %50 = fdiv float %46, %49
  ret float %50
}