; Function Attrs: nounwind uwtable
define float @Cgt_ManComputeCoverage(ptr noundef %0, ptr noundef readonly captures(none) %1) local_unnamed_addr #0 {
  %3 = tail call ptr @Ssw_SmlSimulateSeq(ptr noundef %0, i32 noundef 0, i32 noundef 32, i32 noundef 1) #16
  %4 = getelementptr i8, ptr %1, i64 4
  %.val1718 = load i32, ptr %4, align 4
  %5 = icmp sgt i32 %.val1718, 0
  br i1 %5, label %.lr.ph, label %.critedge

.lr.ph:                                           ; preds = %2
  %6 = getelementptr i8, ptr %1, i64 8
  br label %7

7:                                                ; preds = %.lr.ph, %7
  %indvars.iv = phi i64 [ 0, %.lr.ph ], [ %indvars.iv.next, %7 ]
  %.020 = phi i32 [ 0, %.lr.ph ], [ %11, %7 ]
  %.val = load ptr, ptr %6, align 8
  %8 = getelementptr inbounds nuw ptr, ptr %.val, i64 %indvars.iv
  %9 = load ptr, ptr %8, align 8
  %10 = tail call i32 @Ssw_SmlNodeCountOnesRealVec(ptr noundef %3, ptr noundef %9) #16
  %11 = add nsw i32 %10, %.020
  %indvars.iv.next = add nuw nsw i64 %indvars.iv, 1
  %.val17 = load i32, ptr %4, align 4
  %12 = sext i32 %.val17 to i64
  %13 = icmp slt i64 %indvars.iv.next, %12
  br i1 %13, label %7, label %.critedge.loopexit, !llvm.loop !12

.critedge.loopexit:                               ; preds = %7
  %14 = sitofp i32 %11 to float
  %15 = fmul float %14, 1.000000e+02
  %16 = fmul float %15, 3.125000e-02
  %17 = fmul float %16, 3.125000e-02
  br label %.critedge

.critedge:                                        ; preds = %.critedge.loopexit, %2
  %.0.lcssa = phi float [ 0.000000e+00, %2 ], [ %17, %.critedge.loopexit ]
  tail call void @Ssw_SmlStop(ptr noundef %3) #16
  %.val16 = load i32, ptr %4, align 4
  %18 = sitofp i32 %.val16 to float
  %19 = fdiv float %.0.lcssa, %18
  ret float %19
}